target datalayout = "e-m:e-p270:32:32-p271:32:32-p272:64:64-i64:64-i128:128-f80:128-n8:16:32:64-S128"
target triple = "x86_64-pc-linux-gnu"

%struct.jv = type { i8, i8, i16, i32, %union.anon }
%union.anon = type { ptr }
%struct.jv_refcnt = type { i32 }
%struct.decNumber = type { i32, i32, i8, [1 x i16] }
%struct.jvp_literal_number = type { %struct.jv_refcnt, double, ptr, %struct.decNumber }
%struct.anon = type { %struct.decNumber, [1 x i16] }

@dec_ctx_key = internal global i32 0, align 4

; Function Attrs: nounwind uwtable
define internal ptr @jvp_literal_number_ptr(i64 %0, ptr %1) #0 {
  %3 = alloca %struct.jv, align 8
  %4 = getelementptr inbounds nuw { i64, ptr }, ptr %3, i32 0, i32 0
  store i64 %0, ptr %4, align 8
  %5 = getelementptr inbounds nuw { i64, ptr }, ptr %3, i32 0, i32 1
  store ptr %1, ptr %5, align 8
  %6 = getelementptr inbounds nuw %struct.jv, ptr %3, i32 0, i32 4
  %7 = load ptr, ptr %6, align 8, !tbaa !12
  ret ptr %7
}

; Function Attrs: nounwind uwtable
define dso_local double @jv_number_value(i64 %0, ptr %1) #0 {
  %3 = alloca double, align 8
  %4 = alloca %struct.jv, align 8
  %5 = alloca ptr, align 8
  %6 = getelementptr inbounds nuw { i64, ptr }, ptr %4, i32 0, i32 0
  store i64 %0, ptr %6, align 8
  %7 = getelementptr inbounds nuw { i64, ptr }, ptr %4, i32 0, i32 1
  store ptr %1, ptr %7, align 8
  %8 = getelementptr inbounds nuw %struct.jv, ptr %4, i32 0, i32 0
  %9 = load i8, ptr %8, align 8, !tbaa !4
  %10 = zext i8 %9 to i32
  %11 = icmp eq i32 %10, 148
  br i1 %11, label %12, label %34

12:                                               ; preds = %2
  call void @llvm.lifetime.start.p0(i64 8, ptr %5) #11
  %13 = getelementptr inbounds nuw { i64, ptr }, ptr %4, i32 0, i32 0
  %14 = load i64, ptr %13, align 8
  %15 = getelementptr inbounds nuw { i64, ptr }, ptr %4, i32 0, i32 1
  %16 = load ptr, ptr %15, align 8
  %17 = call ptr @jvp_literal_number_ptr(i64 %14, ptr %16)
  store ptr %17, ptr %5, align 8, !tbaa !14
  %18 = load ptr, ptr %5, align 8, !tbaa !14
  %19 = getelementptr inbounds nuw %struct.jvp_literal_number, ptr %18, i32 0, i32 1
  %20 = load double, ptr %19, align 8, !tbaa !35
  %21 = call i1 @llvm.is.fpclass.f64(double %20, i32 3)
  br i1 %21, label %22, label %30

22:                                               ; preds = %12
  %23 = getelementptr inbounds nuw { i64, ptr }, ptr %4, i32 0, i32 0
  %24 = load i64, ptr %23, align 8
  %25 = getelementptr inbounds nuw { i64, ptr }, ptr %4, i32 0, i32 1
  %26 = load ptr, ptr %25, align 8
  %27 = call double @jvp_literal_number_to_double(i64 %24, ptr %26)
  %28 = load ptr, ptr %5, align 8, !tbaa !14
  %29 = getelementptr inbounds nuw %struct.jvp_literal_number, ptr %28, i32 0, i32 1
  store double %27, ptr %29, align 8, !tbaa !35
  br label %30

30:                                               ; preds = %22, %12
  %31 = load ptr, ptr %5, align 8, !tbaa !14
  %32 = getelementptr inbounds nuw %struct.jvp_literal_number, ptr %31, i32 0, i32 1
  %33 = load double, ptr %32, align 8, !tbaa !35
  store double %33, ptr %3, align 8
  call void @llvm.lifetime.end.p0(i64 8, ptr %5) #11
  br label %37

34:                                               ; preds = %2
  %35 = getelementptr inbounds nuw %struct.jv, ptr %4, i32 0, i32 4
  %36 = load double, ptr %35, align 8, !tbaa !12
  store double %36, ptr %3, align 8
  br label %37

37:                                               ; preds = %34, %30
  %38 = load double, ptr %3, align 8
  ret double %38
}

; Function Attrs: nounwind uwtable
define internal ptr @jvp_dec_number_ptr(i64 %0, ptr %1) #0 {
  %3 = alloca %struct.jv, align 8
  %4 = getelementptr inbounds nuw { i64, ptr }, ptr %3, i32 0, i32 0
  store i64 %0, ptr %4, align 8
  %5 = getelementptr inbounds nuw { i64, ptr }, ptr %3, i32 0, i32 1
  store ptr %1, ptr %5, align 8
  %6 = getelementptr inbounds nuw %struct.jv, ptr %3, i32 0, i32 4
  %7 = load ptr, ptr %6, align 8, !tbaa !12
  %8 = getelementptr inbounds nuw %struct.jvp_literal_number, ptr %7, i32 0, i32 3
  ret ptr %8
}

; Function Attrs: nounwind uwtable
define dso_local i32 @jvp_number_cmp(i64 %0, ptr %1, i64 %2, ptr %3) #0 {
  %5 = alloca i32, align 4
  %6 = alloca %struct.jv, align 8
  %7 = alloca %struct.jv, align 8
  %8 = alloca %struct.anon, align 4
  %9 = alloca i32, align 4
  %10 = alloca double, align 8
  %11 = alloca double, align 8
  %12 = getelementptr inbounds nuw { i64, ptr }, ptr %6, i32 0, i32 0
  store i64 %0, ptr %12, align 8
  %13 = getelementptr inbounds nuw { i64, ptr }, ptr %6, i32 0, i32 1
  store ptr %1, ptr %13, align 8
  %14 = getelementptr inbounds nuw { i64, ptr }, ptr %7, i32 0, i32 0
  store i64 %2, ptr %14, align 8
  %15 = getelementptr inbounds nuw { i64, ptr }, ptr %7, i32 0, i32 1
  store ptr %3, ptr %15, align 8
  %16 = getelementptr inbounds nuw %struct.jv, ptr %6, i32 0, i32 0
  %17 = load i8, ptr %16, align 8, !tbaa !4
  %18 = zext i8 %17 to i32
  %19 = icmp eq i32 %18, 148
  br i1 %19, label %20, label %68

20:                                               ; preds = %4
  %21 = getelementptr inbounds nuw %struct.jv, ptr %7, i32 0, i32 0
  %22 = load i8, ptr %21, align 8, !tbaa !4
  %23 = zext i8 %22 to i32
  %24 = icmp eq i32 %23, 148
  br i1 %24, label %25, label %68

25:                                               ; preds = %20
  call void @llvm.lifetime.start.p0(i64 16, ptr %8) #11
  %26 = getelementptr inbounds nuw %struct.anon, ptr %8, i32 0, i32 0
  %27 = getelementptr inbounds nuw { i64, ptr }, ptr %6, i32 0, i32 0
  %28 = load i64, ptr %27, align 8
  %29 = getelementptr inbounds nuw { i64, ptr }, ptr %6, i32 0, i32 1
  %30 = load ptr, ptr %29, align 8
  %31 = call ptr @jvp_dec_number_ptr(i64 %28, ptr %30)
  %32 = getelementptr inbounds nuw { i64, ptr }, ptr %7, i32 0, i32 0
  %33 = load i64, ptr %32, align 8
  %34 = getelementptr inbounds nuw { i64, ptr }, ptr %7, i32 0, i32 1
  %35 = load ptr, ptr %34, align 8
  %36 = call ptr @jvp_dec_number_ptr(i64 %33, ptr %35)
  %37 = call ptr @tsd_dec_ctx_get(ptr noundef @dec_ctx_key)
  %38 = call ptr @decNumberCompare(ptr noundef %26, ptr noundef %31, ptr noundef %36, ptr noundef %37)
  %39 = getelementptr inbounds nuw %struct.anon, ptr %8, i32 0, i32 0
  %40 = getelementptr inbounds nuw %struct.decNumber, ptr %39, i32 0, i32 3
  %41 = getelementptr inbounds [1 x i16], ptr %40, i64 0, i64 0
  %42 = load i16, ptr %41, align 2, !tbaa !13
  %43 = zext i16 %42 to i32
  %44 = icmp eq i32 %43, 0
  br i1 %44, label %45, label %58

45:                                               ; preds = %25
  %46 = getelementptr inbounds nuw %struct.anon, ptr %8, i32 0, i32 0
  %47 = getelementptr inbounds nuw %struct.decNumber, ptr %46, i32 0, i32 0
  %48 = load i32, ptr %47, align 4, !tbaa !42
  %49 = icmp eq i32 %48, 1
  br i1 %49, label %50, label %58

50:                                               ; preds = %45
  %51 = getelementptr inbounds nuw %struct.anon, ptr %8, i32 0, i32 0
  %52 = getelementptr inbounds nuw %struct.decNumber, ptr %51, i32 0, i32 2
  %53 = load i8, ptr %52, align 4, !tbaa !44
  %54 = zext i8 %53 to i32
  %55 = and i32 %54, 112
  %56 = icmp eq i32 %55, 0
  br i1 %56, label %57, label %58

57:                                               ; preds = %50
  store i32 0, ptr %5, align 4
  store i32 1, ptr %9, align 4
  br label %67

58:                                               ; preds = %50, %45, %25
  %59 = getelementptr inbounds nuw %struct.anon, ptr %8, i32 0, i32 0
  %60 = getelementptr inbounds nuw %struct.decNumber, ptr %59, i32 0, i32 2
  %61 = load i8, ptr %60, align 4, !tbaa !44
  %62 = zext i8 %61 to i32
  %63 = and i32 %62, 128
  %64 = icmp ne i32 %63, 0
  br i1 %64, label %65, label %66

65:                                               ; preds = %58
  store i32 -1, ptr %5, align 4
  store i32 1, ptr %9, align 4
  br label %67

66:                                               ; preds = %58
  store i32 1, ptr %5, align 4
  store i32 1, ptr %9, align 4
  br label %67

67:                                               ; preds = %66, %65, %57
  call void @llvm.lifetime.end.p0(i64 16, ptr %8) #11
  br label %90

68:                                               ; preds = %20, %4
  call void @llvm.lifetime.start.p0(i64 8, ptr %10) #11
  %69 = getelementptr inbounds nuw { i64, ptr }, ptr %6, i32 0, i32 0
  %70 = load i64, ptr %69, align 8
  %71 = getelementptr inbounds nuw { i64, ptr }, ptr %6, i32 0, i32 1
  %72 = load ptr, ptr %71, align 8
  %73 = call double @jv_number_value(i64 %70, ptr %72)
  store double %73, ptr %10, align 8, !tbaa !34
  call void @llvm.lifetime.start.p0(i64 8, ptr %11) #11
  %74 = getelementptr inbounds nuw { i64, ptr }, ptr %7, i32 0, i32 0
  %75 = load i64, ptr %74, align 8
  %76 = getelementptr inbounds nuw { i64, ptr }, ptr %7, i32 0, i32 1
  %77 = load ptr, ptr %76, align 8
  %78 = call double @jv_number_value(i64 %75, ptr %77)
  store double %78, ptr %11, align 8, !tbaa !34
  %79 = load double, ptr %10, align 8, !tbaa !34
  %80 = load double, ptr %11, align 8, !tbaa !34
  %81 = fcmp olt double %79, %80
  br i1 %81, label %82, label %83

82:                                               ; preds = %68
  store i32 -1, ptr %5, align 4
  store i32 1, ptr %9, align 4
  br label %89

83:                                               ; preds = %68
  %84 = load double, ptr %10, align 8, !tbaa !34
  %85 = load double, ptr %11, align 8, !tbaa !34
  %86 = fcmp oeq double %84, %85
  br i1 %86, label %87, label %88

87:                                               ; preds = %83
  store i32 0, ptr %5, align 4
  store i32 1, ptr %9, align 4
  br label %89

88:                                               ; preds = %83
  store i32 1, ptr %5, align 4
  store i32 1, ptr %9, align 4
  br label %89

89:                                               ; preds = %88, %87, %82
  call void @llvm.lifetime.end.p0(i64 8, ptr %11) #11
  call void @llvm.lifetime.end.p0(i64 8, ptr %10) #11
  br label %90

90:                                               ; preds = %89, %67
  %91 = load i32, ptr %5, align 4
  ret i32 %91
}