; Function Attrs: nounwind uwtable
define dso_local range(i32 -1, 2) i32 @jvp_number_cmp(i64 %0, ptr %1, i64 %2, ptr %3) local_unnamed_addr #2 {
  %5 = alloca %struct.anon, align 4
  %6 = and i64 %0, 255
  %7 = icmp eq i64 %6, 148
  %8 = and i64 %2, 255
  %9 = icmp eq i64 %8, 148
  %or.cond = select i1 %7, i1 %9, i1 false
  br i1 %or.cond, label %10, label %24

10:                                               ; preds = %4
  call void @llvm.lifetime.start.p0(i64 16, ptr nonnull %5) #25
  %11 = getelementptr inbounds nuw i8, ptr %1, i64 24
  %12 = getelementptr inbounds nuw i8, ptr %3, i64 24
  %13 = tail call fastcc ptr @tsd_dec_ctx_get()
  %14 = call ptr @decNumberCompare(ptr noundef nonnull %5, ptr noundef nonnull %11, ptr noundef nonnull %12, ptr noundef %13) #25
  %15 = getelementptr inbounds nuw i8, ptr %5, i64 10
  %16 = load i16, ptr %15, align 2, !tbaa !32
  %17 = icmp eq i16 %16, 0
  %18 = load i32, ptr %5, align 4
  %19 = icmp eq i32 %18, 1
  %or.cond7 = select i1 %17, i1 %19, i1 false
  %20 = getelementptr inbounds nuw i8, ptr %5, i64 8
  %21 = load i8, ptr %20, align 4, !tbaa !34
  %22 = and i8 %21, 112
  %23 = icmp eq i8 %22, 0
  %or.cond51 = select i1 %or.cond7, i1 %23, i1 false
  %.not = icmp sgt i8 %21, -1
  %. = select i1 %.not, i32 1, i32 -1
  %.0 = select i1 %or.cond51, i32 0, i32 %.
  call void @llvm.lifetime.end.p0(i64 16, ptr nonnull %5) #25
  br label %45

24:                                               ; preds = %4
  br i1 %7, label %25, label %31

25:                                               ; preds = %24
  %26 = getelementptr inbounds nuw i8, ptr %1, i64 8
  %27 = load double, ptr %26, align 8, !tbaa !24
  %28 = fcmp uno double %27, 0.000000e+00
  br i1 %28, label %29, label %jv_number_value.exit

29:                                               ; preds = %25
  %30 = tail call fastcc double @jvp_literal_number_to_double(ptr nonnull %1)
  store double %30, ptr %26, align 8, !tbaa !24
  br label %jv_number_value.exit

31:                                               ; preds = %24
  %32 = ptrtoint ptr %1 to i64
  %33 = bitcast i64 %32 to double
  br label %jv_number_value.exit

jv_number_value.exit:                             ; preds = %25, %29, %31
  %.0.i = phi double [ %33, %31 ], [ %30, %29 ], [ %27, %25 ]
  br i1 %9, label %34, label %40

34:                                               ; preds = %jv_number_value.exit
  %35 = getelementptr inbounds nuw i8, ptr %3, i64 8
  %36 = load double, ptr %35, align 8, !tbaa !24
  %37 = fcmp uno double %36, 0.000000e+00
  br i1 %37, label %38, label %jv_number_value.exit49

38:                                               ; preds = %34
  %39 = tail call fastcc double @jvp_literal_number_to_double(ptr nonnull %3)
  store double %39, ptr %35, align 8, !tbaa !24
  br label %jv_number_value.exit49

40:                                               ; preds = %jv_number_value.exit
  %41 = ptrtoint ptr %3 to i64
  %42 = bitcast i64 %41 to double
  br label %jv_number_value.exit49

jv_number_value.exit49:                           ; preds = %34, %38, %40
  %.0.i48 = phi double [ %42, %40 ], [ %39, %38 ], [ %36, %34 ]
  %43 = fcmp olt double %.0.i, %.0.i48
  %44 = fcmp une double %.0.i, %.0.i48
  %.47 = zext i1 %44 to i32
  %.2 = select i1 %43, i32 -1, i32 %.47
  br label %45

45:                                               ; preds = %jv_number_value.exit49, %10
  %.1 = phi i32 [ %.0, %10 ], [ %.2, %jv_number_value.exit49 ]
  ret i32 %.1
}